; Function Attrs: mustprogress nofree norecurse nosync nounwind willreturn memory(readwrite, inaccessiblemem: none) uwtable
define internal noundef i64 @ExecJustAssignScanVarVirt(ptr noundef readonly captures(none) %0, ptr noundef readonly captures(none) %1, ptr readnone captures(none) %2) #3 {
  %4 = getelementptr inbounds nuw i8, ptr %1, i64 8
  %5 = load ptr, ptr %4, align 8
  %6 = getelementptr inbounds nuw i8, ptr %0, i64 24
  %7 = load ptr, ptr %6, align 8
  %8 = getelementptr inbounds nuw i8, ptr %7, i64 24
  %9 = getelementptr inbounds nuw i8, ptr %7, i64 28
  %10 = load i32, ptr %9, align 4
  %11 = load i32, ptr %8, align 8
  %12 = getelementptr inbounds nuw i8, ptr %0, i64 16
  %13 = load ptr, ptr %12, align 8
  %14 = getelementptr inbounds nuw i8, ptr %5, i64 24
  %15 = load ptr, ptr %14, align 8
  %16 = sext i32 %10 to i64
  %17 = getelementptr inbounds i64, ptr %15, i64 %16
  %18 = load i64, ptr %17, align 8
  %19 = getelementptr inbounds nuw i8, ptr %13, i64 24
  %20 = load ptr, ptr %19, align 8
  %21 = sext i32 %11 to i64
  %22 = getelementptr inbounds i64, ptr %20, i64 %21
  store i64 %18, ptr %22, align 8
  %23 = getelementptr inbounds nuw i8, ptr %5, i64 32
  %24 = load ptr, ptr %23, align 8
  %25 = getelementptr inbounds i8, ptr %24, i64 %16
  %26 = load i8, ptr %25, align 1, !range !8, !noundef !9
  %27 = getelementptr inbounds nuw i8, ptr %13, i64 32
  %28 = load ptr, ptr %27, align 8
  %29 = getelementptr inbounds i8, ptr %28, i64 %21
  store i8 %26, ptr %29, align 1
  ret i64 0
}